target datalayout = "e-m:e-p270:32:32-p271:32:32-p272:64:64-i64:64-i128:128-f80:128-n8:16:32:64-S128"
target triple = "x86_64-pc-linux-gnu"

@.str = private unnamed_addr constant [1 x i8] zeroinitializer, align 1
@.str.1 = private unnamed_addr constant [4 x i8] c"%s:\00", align 1
@.str.2 = private unnamed_addr constant [7 x i8] c"<null>\00", align 1
@.str.3 = private unnamed_addr constant [11 x i8] c":%s:%d:%s\0A\00", align 1
@.str.4 = private unnamed_addr constant [32 x i8] c"../openssl/crypto/err/err_prn.c\00", align 1

; Function Attrs: nounwind uwtable
define void @ERR_print_errors_cb(ptr noundef %0, ptr noundef %1) #0 {
  %3 = alloca ptr, align 8
  %4 = alloca ptr, align 8
  %5 = alloca i64, align 8
  %6 = alloca i64, align 8
  %7 = alloca ptr, align 8
  %8 = alloca ptr, align 8
  %9 = alloca ptr, align 8
  %10 = alloca i32, align 4
  %11 = alloca i32, align 4
  %12 = alloca [4096 x i8], align 16
  %13 = alloca ptr, align 8
  %14 = alloca i32, align 4
  %15 = alloca i32, align 4
  store ptr %0, ptr %3, align 8, !tbaa !3
  store ptr %1, ptr %4, align 8, !tbaa !3
  call void @llvm.lifetime.start.p0(i64 8, ptr %5) #6
  %16 = call i64 @CRYPTO_THREAD_get_current_id()
  store i64 %16, ptr %5, align 8, !tbaa !7
  call void @llvm.lifetime.start.p0(i64 8, ptr %6) #6
  call void @llvm.lifetime.start.p0(i64 8, ptr %7) #6
  call void @llvm.lifetime.start.p0(i64 8, ptr %8) #6
  call void @llvm.lifetime.start.p0(i64 8, ptr %9) #6
  call void @llvm.lifetime.start.p0(i64 4, ptr %10) #6
  call void @llvm.lifetime.start.p0(i64 4, ptr %11) #6
  br label %17

17:                                               ; preds = %80, %2
  %18 = call i64 @ERR_get_error_all(ptr noundef %7, ptr noundef %10, ptr noundef %9, ptr noundef %8, ptr noundef %11)
  store i64 %18, ptr %6, align 8, !tbaa !7
  %19 = icmp ne i64 %18, 0
  br i1 %19, label %20, label %81

20:                                               ; preds = %17
  call void @llvm.lifetime.start.p0(i64 4096, ptr %12) #6
  call void @llvm.memset.p0.i64(ptr align 16 %12, i8 0, i64 4096, i1 false)
  call void @llvm.lifetime.start.p0(i64 8, ptr %13) #6
  store ptr null, ptr %13, align 8, !tbaa !9
  call void @llvm.lifetime.start.p0(i64 4, ptr %14) #6
  %21 = load i32, ptr %11, align 4, !tbaa !11
  %22 = and i32 %21, 2
  %23 = icmp eq i32 %22, 0
  br i1 %23, label %24, label %25

24:                                               ; preds = %20
  store ptr @.str, ptr %8, align 8, !tbaa !9
  br label %25

25:                                               ; preds = %24, %20
  %26 = call ptr @ossl_buf2hexstr_sep(ptr noundef %5, i64 noundef 8, i8 noundef signext 0)
  store ptr %26, ptr %13, align 8, !tbaa !9
  %27 = getelementptr inbounds [4096 x i8], ptr %12, i64 0, i64 0
  %28 = load ptr, ptr %13, align 8, !tbaa !9
  %29 = icmp eq ptr %28, null
  br i1 %29, label %30, label %31

30:                                               ; preds = %25
  br label %33

31:                                               ; preds = %25
  %32 = load ptr, ptr %13, align 8, !tbaa !9
  br label %33

33:                                               ; preds = %31, %30
  %34 = phi ptr [ @.str.2, %30 ], [ %32, %31 ]
  %35 = call i32 (ptr, i64, ptr, ...) @BIO_snprintf(ptr noundef %27, i64 noundef 4096, ptr noundef @.str.1, ptr noundef %34)
  %36 = getelementptr inbounds [4096 x i8], ptr %12, i64 0, i64 0
  %37 = call i64 @strlen(ptr noundef %36) #7
  %38 = trunc i64 %37 to i32
  store i32 %38, ptr %14, align 4, !tbaa !11
  %39 = load i64, ptr %6, align 8, !tbaa !7
  %40 = load ptr, ptr %9, align 8, !tbaa !9
  %41 = getelementptr inbounds [4096 x i8], ptr %12, i64 0, i64 0
  %42 = load i32, ptr %14, align 4, !tbaa !11
  %43 = sext i32 %42 to i64
  %44 = getelementptr inbounds i8, ptr %41, i64 %43
  %45 = load i32, ptr %14, align 4, !tbaa !11
  %46 = sext i32 %45 to i64
  %47 = sub i64 4096, %46
  call void @ossl_err_string_int(i64 noundef %39, ptr noundef %40, ptr noundef %44, i64 noundef %47)
  %48 = getelementptr inbounds [4096 x i8], ptr %12, i64 0, i64 0
  %49 = load i32, ptr %14, align 4, !tbaa !11
  %50 = sext i32 %49 to i64
  %51 = getelementptr inbounds i8, ptr %48, i64 %50
  %52 = call i64 @strlen(ptr noundef %51) #7
  %53 = load i32, ptr %14, align 4, !tbaa !11
  %54 = sext i32 %53 to i64
  %55 = add i64 %54, %52
  %56 = trunc i64 %55 to i32
  store i32 %56, ptr %14, align 4, !tbaa !11
  %57 = getelementptr inbounds [4096 x i8], ptr %12, i64 0, i64 0
  %58 = load i32, ptr %14, align 4, !tbaa !11
  %59 = sext i32 %58 to i64
  %60 = getelementptr inbounds i8, ptr %57, i64 %59
  %61 = load i32, ptr %14, align 4, !tbaa !11
  %62 = sext i32 %61 to i64
  %63 = sub i64 4096, %62
  %64 = load ptr, ptr %7, align 8, !tbaa !9
  %65 = load i32, ptr %10, align 4, !tbaa !11
  %66 = load ptr, ptr %8, align 8, !tbaa !9
  %67 = call i32 (ptr, i64, ptr, ...) @BIO_snprintf(ptr noundef %60, i64 noundef %63, ptr noundef @.str.3, ptr noundef %64, i32 noundef %65, ptr noundef %66)
  %68 = load ptr, ptr %13, align 8, !tbaa !9
  call void @CRYPTO_free(ptr noundef %68, ptr noundef @.str.4, i32 noundef 43)
  %69 = load ptr, ptr %3, align 8, !tbaa !3
  %70 = getelementptr inbounds [4096 x i8], ptr %12, i64 0, i64 0
  %71 = getelementptr inbounds [4096 x i8], ptr %12, i64 0, i64 0
  %72 = call i64 @strlen(ptr noundef %71) #7
  %73 = load ptr, ptr %4, align 8, !tbaa !3
  %74 = call i32 %69(ptr noundef %70, i64 noundef %72, ptr noundef %73)
  %75 = icmp sle i32 %74, 0
  br i1 %75, label %76, label %77

76:                                               ; preds = %33
  store i32 3, ptr %15, align 4
  br label %78

77:                                               ; preds = %33
  store i32 0, ptr %15, align 4
  br label %78

78:                                               ; preds = %77, %76
  call void @llvm.lifetime.end.p0(i64 4, ptr %14) #6
  call void @llvm.lifetime.end.p0(i64 8, ptr %13) #6
  call void @llvm.lifetime.end.p0(i64 4096, ptr %12) #6
  %79 = load i32, ptr %15, align 4
  switch i32 %79, label %82 [
    i32 0, label %80
    i32 3, label %81
  ]

80:                                               ; preds = %78
  br label %17, !llvm.loop !13

81:                                               ; preds = %78, %17
  call void @llvm.lifetime.end.p0(i64 4, ptr %11) #6
  call void @llvm.lifetime.end.p0(i64 4, ptr %10) #6
  call void @llvm.lifetime.end.p0(i64 8, ptr %9) #6
  call void @llvm.lifetime.end.p0(i64 8, ptr %8) #6
  call void @llvm.lifetime.end.p0(i64 8, ptr %7) #6
  call void @llvm.lifetime.end.p0(i64 8, ptr %6) #6
  call void @llvm.lifetime.end.p0(i64 8, ptr %5) #6
  ret void

82:                                               ; preds = %78
  unreachable
}