; Function Attrs: nounwind uwtable
define void @ERR_print_errors_cb(ptr noundef readonly captures(none) %0, ptr noundef %1) local_unnamed_addr #0 {
  %3 = alloca i64, align 8
  %4 = alloca ptr, align 8
  %5 = alloca ptr, align 8
  %6 = alloca ptr, align 8
  %7 = alloca i32, align 4
  %8 = alloca i32, align 4
  %9 = alloca [4096 x i8], align 16
  call void @llvm.lifetime.start.p0(i64 8, ptr nonnull %3) #5
  %10 = tail call i64 @CRYPTO_THREAD_get_current_id() #5
  store i64 %10, ptr %3, align 8, !tbaa !3
  call void @llvm.lifetime.start.p0(i64 8, ptr nonnull %4) #5
  call void @llvm.lifetime.start.p0(i64 8, ptr nonnull %5) #5
  call void @llvm.lifetime.start.p0(i64 8, ptr nonnull %6) #5
  call void @llvm.lifetime.start.p0(i64 4, ptr nonnull %7) #5
  call void @llvm.lifetime.start.p0(i64 4, ptr nonnull %8) #5
  br label %11

11:                                               ; preds = %18, %2
  %12 = call i64 @ERR_get_error_all(ptr noundef nonnull %4, ptr noundef nonnull %7, ptr noundef nonnull %6, ptr noundef nonnull %5, ptr noundef nonnull %8) #5
  %.not = icmp eq i64 %12, 0
  br i1 %.not, label %40, label %13

13:                                               ; preds = %11
  call void @llvm.lifetime.start.p0(i64 4096, ptr nonnull %9) #5
  call void @llvm.memset.p0.i64(ptr noundef nonnull align 16 dereferenceable(4096) %9, i8 0, i64 4096, i1 false)
  %14 = load i32, ptr %8, align 4, !tbaa !7
  %15 = and i32 %14, 2
  %16 = icmp eq i32 %15, 0
  br i1 %16, label %17, label %18

17:                                               ; preds = %13
  store ptr @.str, ptr %5, align 8, !tbaa !9
  br label %18

18:                                               ; preds = %17, %13
  %19 = call ptr @ossl_buf2hexstr_sep(ptr noundef nonnull %3, i64 noundef 8, i8 noundef signext 0) #5
  %20 = icmp eq ptr %19, null
  %21 = select i1 %20, ptr @.str.2, ptr %19
  %22 = call i32 (ptr, i64, ptr, ...) @BIO_snprintf(ptr noundef nonnull %9, i64 noundef 4096, ptr noundef nonnull @.str.1, ptr noundef nonnull %21) #5
  %23 = call i64 @strlen(ptr noundef nonnull dereferenceable(1) %9) #6
  %24 = load ptr, ptr %6, align 8, !tbaa !9
  %sext = shl i64 %23, 32
  %25 = ashr exact i64 %sext, 32
  %26 = getelementptr inbounds i8, ptr %9, i64 %25
  %27 = sub nsw i64 4096, %25
  call void @ossl_err_string_int(i64 noundef %12, ptr noundef %24, ptr noundef nonnull %26, i64 noundef %27) #5
  %28 = call i64 @strlen(ptr noundef nonnull dereferenceable(1) %26) #6
  %29 = add i64 %28, %23
  %sext13 = shl i64 %29, 32
  %30 = ashr exact i64 %sext13, 32
  %31 = getelementptr inbounds i8, ptr %9, i64 %30
  %32 = sub nsw i64 4096, %30
  %33 = load ptr, ptr %4, align 8, !tbaa !9
  %34 = load i32, ptr %7, align 4, !tbaa !7
  %35 = load ptr, ptr %5, align 8, !tbaa !9
  %36 = call i32 (ptr, i64, ptr, ...) @BIO_snprintf(ptr noundef nonnull %31, i64 noundef %32, ptr noundef nonnull @.str.3, ptr noundef %33, i32 noundef %34, ptr noundef %35) #5
  call void @CRYPTO_free(ptr noundef %19, ptr noundef nonnull @.str.4, i32 noundef 43) #5
  %37 = call i64 @strlen(ptr noundef nonnull dereferenceable(1) %9) #6
  %38 = call i32 %0(ptr noundef nonnull %9, i64 noundef %37, ptr noundef %1) #5
  %39 = icmp slt i32 %38, 1
  call void @llvm.lifetime.end.p0(i64 4096, ptr nonnull %9) #5
  br i1 %39, label %40, label %11

40:                                               ; preds = %18, %11
  call void @llvm.lifetime.end.p0(i64 4, ptr nonnull %8) #5
  call void @llvm.lifetime.end.p0(i64 4, ptr nonnull %7) #5
  call void @llvm.lifetime.end.p0(i64 8, ptr nonnull %6) #5
  call void @llvm.lifetime.end.p0(i64 8, ptr nonnull %5) #5
  call void @llvm.lifetime.end.p0(i64 8, ptr nonnull %4) #5
  call void @llvm.lifetime.end.p0(i64 8, ptr nonnull %3) #5
  ret void
}